target datalayout = "e-m:e-p270:32:32-p271:32:32-p272:64:64-i64:64-i128:128-f80:128-n8:16:32:64-S128"
target triple = "x86_64-pc-linux-gnu"

%struct.AVRational = type { i32, i32 }
%struct.AVChannelLayout = type { i32, i32, %union.anon.0, ptr }
%union.anon.0 = type { i64 }
%struct.AVFrame = type { [8 x ptr], [8 x i32], ptr, i32, i32, i32, i32, i32, %struct.AVRational, i64, i64, %struct.AVRational, i32, ptr, i32, i32, [8 x ptr], ptr, i32, ptr, i32, i32, i32, i32, i32, i32, i32, i64, ptr, i32, ptr, ptr, i64, i64, i64, i64, ptr, %struct.AVChannelLayout, i64 }

; Function Attrs: inlinehint nounwind uwtable
define internal void @av_image_copy2(ptr noundef %0, ptr noundef %1, ptr noundef %2, ptr noundef %3, i32 noundef %4, i32 noundef %5, i32 noundef %6) #5 {
  %8 = alloca ptr, align 8
  %9 = alloca ptr, align 8
  %10 = alloca ptr, align 8
  %11 = alloca ptr, align 8
  %12 = alloca i32, align 4
  %13 = alloca i32, align 4
  %14 = alloca i32, align 4
  store ptr %0, ptr %8, align 8, !tbaa !71
  store ptr %1, ptr %9, align 8, !tbaa !49
  store ptr %2, ptr %10, align 8, !tbaa !71
  store ptr %3, ptr %11, align 8, !tbaa !49
  store i32 %4, ptr %12, align 4, !tbaa !47
  store i32 %5, ptr %13, align 4, !tbaa !47
  store i32 %6, ptr %14, align 4, !tbaa !47
  %15 = load ptr, ptr %8, align 8, !tbaa !71
  %16 = load ptr, ptr %9, align 8, !tbaa !49
  %17 = load ptr, ptr %10, align 8, !tbaa !71
  %18 = load ptr, ptr %11, align 8, !tbaa !49
  %19 = load i32, ptr %12, align 4, !tbaa !47
  %20 = load i32, ptr %13, align 4, !tbaa !47
  %21 = load i32, ptr %14, align 4, !tbaa !47
  call void @av_image_copy(ptr noundef %15, ptr noundef %16, ptr noundef %17, ptr noundef %18, i32 noundef %19, i32 noundef %20, i32 noundef %21)
  ret void
}

; Function Attrs: nounwind uwtable
define internal void @copy_frame(ptr noundef %0, ptr noundef %1, i32 noundef %2, i32 noundef %3) #1 {
  %5 = alloca ptr, align 8
  %6 = alloca ptr, align 8
  %7 = alloca i32, align 4
  %8 = alloca i32, align 4
  %9 = alloca [4 x ptr], align 16
  %10 = alloca [4 x i32], align 16
  store ptr %0, ptr %5, align 8, !tbaa !48
  store ptr %1, ptr %6, align 8, !tbaa !54
  store i32 %2, ptr %7, align 4, !tbaa !47
  store i32 %3, ptr %8, align 4, !tbaa !47
  call void @llvm.lifetime.start.p0(i64 32, ptr %9) #6
  call void @llvm.lifetime.start.p0(i64 16, ptr %10) #6
  %11 = getelementptr inbounds [4 x ptr], ptr %9, i64 0, i64 0
  %12 = getelementptr inbounds [4 x i32], ptr %10, i64 0, i64 0
  %13 = load ptr, ptr %6, align 8, !tbaa !54
  %14 = load ptr, ptr %5, align 8, !tbaa !48
  %15 = getelementptr inbounds nuw %struct.AVFrame, ptr %14, i32 0, i32 6
  %16 = load i32, ptr %15, align 4, !tbaa !70
  %17 = load i32, ptr %7, align 4, !tbaa !47
  %18 = load i32, ptr %8, align 4, !tbaa !47
  %19 = call i32 @av_image_fill_arrays(ptr noundef %11, ptr noundef %12, ptr noundef %13, i32 noundef %16, i32 noundef %17, i32 noundef %18, i32 noundef 1)
  %20 = load ptr, ptr %5, align 8, !tbaa !48
  %21 = getelementptr inbounds nuw %struct.AVFrame, ptr %20, i32 0, i32 0
  %22 = getelementptr inbounds [8 x ptr], ptr %21, i64 0, i64 0
  %23 = load ptr, ptr %5, align 8, !tbaa !48
  %24 = getelementptr inbounds nuw %struct.AVFrame, ptr %23, i32 0, i32 1
  %25 = getelementptr inbounds [8 x i32], ptr %24, i64 0, i64 0
  %26 = getelementptr inbounds [4 x ptr], ptr %9, i64 0, i64 0
  %27 = getelementptr inbounds [4 x i32], ptr %10, i64 0, i64 0
  %28 = load ptr, ptr %5, align 8, !tbaa !48
  %29 = getelementptr inbounds nuw %struct.AVFrame, ptr %28, i32 0, i32 6
  %30 = load i32, ptr %29, align 4, !tbaa !70
  %31 = load i32, ptr %7, align 4, !tbaa !47
  %32 = load i32, ptr %8, align 4, !tbaa !47
  call void @av_image_copy2(ptr noundef %22, ptr noundef %25, ptr noundef %26, ptr noundef %27, i32 noundef %30, i32 noundef %31, i32 noundef %32)
  call void @llvm.lifetime.end.p0(i64 16, ptr %10) #6
  call void @llvm.lifetime.end.p0(i64 32, ptr %9) #6
  ret void
}