; Function Attrs: nounwind uwtable
define internal fastcc void @copy_frame(ptr noundef %0, ptr noundef %1, i32 noundef %2, i32 noundef range(i32 1, -2147483648) %3) unnamed_addr #1 {
  %5 = alloca [4 x ptr], align 16
  %6 = alloca [4 x i32], align 16
  call void @llvm.lifetime.start.p0(i64 32, ptr nonnull %5) #6
  call void @llvm.lifetime.start.p0(i64 16, ptr nonnull %6) #6
  %7 = getelementptr inbounds nuw i8, ptr %0, i64 116
  %8 = load i32, ptr %7, align 4, !tbaa !61
  %9 = call i32 @av_image_fill_arrays(ptr noundef nonnull %5, ptr noundef nonnull %6, ptr noundef %1, i32 noundef %8, i32 noundef %2, i32 noundef %3, i32 noundef 1) #6
  %10 = getelementptr inbounds nuw i8, ptr %0, i64 64
  %11 = load i32, ptr %7, align 4, !tbaa !61
  call void @av_image_copy(ptr noundef %0, ptr noundef nonnull %10, ptr noundef nonnull %5, ptr noundef nonnull %6, i32 noundef %11, i32 noundef %2, i32 noundef range(i32 1, -2147483648) %3) #6
  call void @llvm.lifetime.end.p0(i64 16, ptr nonnull %6) #6
  call void @llvm.lifetime.end.p0(i64 32, ptr nonnull %5) #6
  ret void
}